target datalayout = "e-m:e-p270:32:32-p271:32:32-p272:64:64-i64:64-i128:128-f80:128-n8:16:32:64-S128"
target triple = "x86_64-pc-linux-gnu"

%"struct.Luau::Location" = type { %"struct.Luau::Position", %"struct.Luau::Position" }
%"struct.Luau::Position" = type { i32, i32 }
%"struct.Luau::AstName" = type { ptr }
%"class.Luau::AstExprCall" = type <{ %"class.Luau::AstExpr.base", [4 x i8], ptr, %"struct.Luau::AstArray", i8, [3 x i8], %"struct.Luau::Location", [4 x i8] }>
%"class.Luau::AstExpr.base" = type { %"class.Luau::AstNode.base" }
%"class.Luau::AstNode.base" = type <{ ptr, i32, %"struct.Luau::Location" }>
%"struct.Luau::AstArray" = type { ptr, i64 }
%"class.Luau::AstNode" = type <{ ptr, i32, %"struct.Luau::Location", [4 x i8] }>
%"class.Luau::AstExprGlobal" = type { %"class.Luau::AstExpr.base", %"struct.Luau::AstName" }

@_ZN4Luau7AstRttiINS_13AstExprGlobalEE5valueE = linkonce_odr dso_local global i32 0, comdat, align 4
@.str.89 = private unnamed_addr constant [7 x i8] c"assert\00", align 1

; Function Attrs: mustprogress nounwind uwtable
define linkonce_odr dso_local noundef i32 @_ZN4Luau13AstExprGlobal10ClassIndexEv() #2 comdat align 2 {
  %1 = load i32, ptr @_ZN4Luau7AstRttiINS_13AstExprGlobalEE5valueE, align 4, !tbaa !4
  ret i32 %1
}

; Function Attrs: mustprogress nounwind uwtable
define linkonce_odr dso_local noundef zeroext i1 @_ZNK4Luau7AstNameneEPKc(ptr noundef nonnull align 8 dereferenceable(8) %0, ptr noundef %1) #2 comdat align 2 {
  %3 = alloca ptr, align 8
  %4 = alloca ptr, align 8
  store ptr %0, ptr %3, align 8, !tbaa !192
  store ptr %1, ptr %4, align 8, !tbaa !24
  %5 = load ptr, ptr %3, align 8
  %6 = getelementptr inbounds nuw %"struct.Luau::AstName", ptr %5, i32 0, i32 0
  %7 = load ptr, ptr %6, align 8, !tbaa !210
  %8 = icmp ne ptr %7, null
  br i1 %8, label %9, label %15

9:                                                ; preds = %2
  %10 = getelementptr inbounds nuw %"struct.Luau::AstName", ptr %5, i32 0, i32 0
  %11 = load ptr, ptr %10, align 8, !tbaa !210
  %12 = load ptr, ptr %4, align 8, !tbaa !24
  %13 = call i32 @strcmp(ptr noundef %11, ptr noundef %12) #25
  %14 = icmp ne i32 %13, 0
  br label %15

15:                                               ; preds = %9, %2
  %16 = phi i1 [ true, %2 ], [ %14, %9 ]
  ret i1 %16
}

; Function Attrs: mustprogress uwtable
define linkonce_odr dso_local noundef ptr @_ZN4Luau7AstNode2asINS_13AstExprGlobalEEEPT_v(ptr noundef nonnull align 8 dereferenceable(28) %0) #6 comdat align 2 {
  %2 = alloca ptr, align 8
  store ptr %0, ptr %2, align 8, !tbaa !520
  %3 = load ptr, ptr %2, align 8
  %4 = getelementptr inbounds nuw %"class.Luau::AstNode", ptr %3, i32 0, i32 1
  %5 = load i32, ptr %4, align 8, !tbaa !522
  %6 = call noundef i32 @_ZN4Luau13AstExprGlobal10ClassIndexEv()
  %7 = icmp eq i32 %5, %6
  br i1 %7, label %8, label %9

8:                                                ; preds = %1
  br label %10

9:                                                ; preds = %1
  br label %10

10:                                               ; preds = %9, %8
  %11 = phi ptr [ %3, %8 ], [ null, %9 ]
  ret ptr %11
}

; Function Attrs: mustprogress uwtable
define dso_local noundef zeroext i1 @_ZN4Luau11matchAssertERKNS_11AstExprCallE(ptr noundef nonnull align 8 dereferenceable(76) %0) #6 {
  %2 = alloca i1, align 1
  %3 = alloca ptr, align 8
  %4 = alloca ptr, align 8
  %5 = alloca i32, align 4
  store ptr %0, ptr %3, align 8, !tbaa !357
  %6 = load ptr, ptr %3, align 8, !tbaa !357
  %7 = getelementptr inbounds nuw %"class.Luau::AstExprCall", ptr %6, i32 0, i32 3
  %8 = getelementptr inbounds nuw %"struct.Luau::AstArray", ptr %7, i32 0, i32 1
  %9 = load i64, ptr %8, align 8, !tbaa !379
  %10 = icmp ult i64 %9, 1
  br i1 %10, label %11, label %12

11:                                               ; preds = %1
  store i1 false, ptr %2, align 1
  br label %26

12:                                               ; preds = %1
  call void @llvm.lifetime.start.p0(i64 8, ptr %4) #4
  %13 = load ptr, ptr %3, align 8, !tbaa !357
  %14 = getelementptr inbounds nuw %"class.Luau::AstExprCall", ptr %13, i32 0, i32 2
  %15 = load ptr, ptr %14, align 8, !tbaa !363
  %16 = call noundef ptr @_ZN4Luau7AstNode2asINS_13AstExprGlobalEEEPT_v(ptr noundef nonnull align 8 dereferenceable(28) %15)
  store ptr %16, ptr %4, align 8, !tbaa !775
  %17 = load ptr, ptr %4, align 8, !tbaa !775
  %18 = icmp ne ptr %17, null
  br i1 %18, label %19, label %23

19:                                               ; preds = %12
  %20 = load ptr, ptr %4, align 8, !tbaa !775
  %21 = getelementptr inbounds nuw %"class.Luau::AstExprGlobal", ptr %20, i32 0, i32 1
  %22 = call noundef zeroext i1 @_ZNK4Luau7AstNameneEPKc(ptr noundef nonnull align 8 dereferenceable(8) %21, ptr noundef @.str.89)
  br i1 %22, label %23, label %24

23:                                               ; preds = %19, %12
  store i1 false, ptr %2, align 1
  store i32 1, ptr %5, align 4
  br label %25

24:                                               ; preds = %19
  store i1 true, ptr %2, align 1
  store i32 1, ptr %5, align 4
  br label %25

25:                                               ; preds = %24, %23
  call void @llvm.lifetime.end.p0(i64 8, ptr %4) #4
  br label %26

26:                                               ; preds = %25, %11
  %27 = load i1, ptr %2, align 1
  ret i1 %27
}