; Function Attrs: mustprogress nofree nounwind willreturn memory(read, inaccessiblemem: none) uwtable
define dso_local noundef zeroext i1 @_ZN4Luau11matchAssertERKNS_11AstExprCallE(ptr noundef nonnull readonly align 8 captures(none) dereferenceable(76) %0) local_unnamed_addr #12 {
  %2 = getelementptr inbounds nuw i8, ptr %0, i64 48
  %3 = load i64, ptr %2, align 8, !tbaa !332
  %4 = icmp eq i64 %3, 0
  br i1 %4, label %16, label %5

5:                                                ; preds = %1
  %6 = getelementptr inbounds nuw i8, ptr %0, i64 32
  %7 = load ptr, ptr %6, align 8, !tbaa !310
  %8 = getelementptr inbounds nuw i8, ptr %7, i64 8
  %9 = load i32, ptr %8, align 8, !tbaa !317
  %10 = load i32, ptr @_ZN4Luau7AstRttiINS_13AstExprGlobalEE5valueE, align 4, !tbaa !4
  %11 = icmp ne i32 %9, %10
  %.not7 = icmp eq ptr %7, null
  %.not = or i1 %.not7, %11
  br i1 %.not, label %16, label %12

12:                                               ; preds = %5
  %13 = getelementptr inbounds nuw i8, ptr %7, i64 32
  %14 = load ptr, ptr %13, align 8, !tbaa !571
  %.not.i = icmp eq ptr %14, null
  br i1 %.not.i, label %_ZNK4Luau7AstNameneEPKc.exit.thread, label %_ZNK4Luau7AstNameneEPKc.exit

_ZNK4Luau7AstNameneEPKc.exit:                     ; preds = %12
  %15 = tail call i32 @strcmp(ptr noundef nonnull dereferenceable(1) %14, ptr noundef nonnull dereferenceable(7) @.str.89) #34
  %.fr = freeze i32 %15
  %.not8 = icmp eq i32 %.fr, 0
  br i1 %.not8, label %16, label %_ZNK4Luau7AstNameneEPKc.exit.thread

_ZNK4Luau7AstNameneEPKc.exit.thread:              ; preds = %12, %_ZNK4Luau7AstNameneEPKc.exit
  br label %16

16:                                               ; preds = %_ZNK4Luau7AstNameneEPKc.exit.thread, %_ZNK4Luau7AstNameneEPKc.exit, %5, %1
  %.0 = phi i1 [ false, %1 ], [ false, %5 ], [ false, %_ZNK4Luau7AstNameneEPKc.exit.thread ], [ true, %_ZNK4Luau7AstNameneEPKc.exit ]
  ret i1 %.0
}